(dp0
S'mean_maglim_low'
p1
cnumpy.core.multiarray
scalar
p2
(cnumpy
dtype
p3
(S'f8'
p4
I0
I1
tp5
Rp6
(I3
S'<'
p7
NNNI-1
I-1
I0
tp8
bS'\xf8\xd8m\x8e\xddd\xf1?'
p9
tp10
Rp11
sS'ratio_skybrite'
p12
g2
(g6
S'\xfc:"\x91_y\xea?'
p13
tp14
Rp15
sS'mean_airmass_low'
p16
g2
(g6
S'\x1a%#Z_\xde\xf0?'
p17
tp18
Rp19
sS'std_skybrite_low'
p20
g2
(g6
S'\xe6\x1eX\xfd\xac\x86\xb9?'
p21
tp22
Rp23
sS'err_ratio_maglim'
p24
g2
(g6
S'R\xcf\xf7\xcb\xac\xac\xc2?'
p25
tp26
Rp27
sS'std_fwhm_hi'
p28
g2
(g6
S'\xde\x11/G\x8as\xba?'
p29
tp30
Rp31
sS'std_skybrite_hi'
p32
g2
(g6
S'S\xb8\xe1\x93\xe0\x8d\xbf?'
p33
tp34
Rp35
sS'std_fwhm_low'
p36
g2
(g6
S')\xdf\x98\xd4\xc8\x85\xbf?'
p37
tp38
Rp39
sS'std_airmass_hi'
p40
g2
(g6
S'+{\xf8\xd9~=\xba?'
p41
tp42
Rp43
sS'ratio_maglim'
p44
g2
(g6
S'\xf0\xb3\xbb$\xb1\x80\xf0?'
p45
tp46
Rp47
sS'mean_fwhm_low'
p48
g2
(g6
S'\x1f\x1bOM\xf7\x17\xef?'
p49
tp50
Rp51
sS'err_ratio_skybrite'
p52
g2
(g6
S'\xd9\x05\xd3\xeb\xb18\xbe?'
p53
tp54
Rp55
sS'std_maglim_hi'
p56
g2
(g6
S'/RJE\xf5\x03\xb8?'
p57
tp58
Rp59
sS'err_ratio_fwhm'
p60
g2
(g6
S'\xbcG\xcd\x8b-\xe8\xc9?'
p61
tp62
Rp63
sS'err_ratio_airmass'
p64
g2
(g6
S'{\xf5S!\xe3\xdd\xc2?'
p65
tp66
Rp67
sS'ratio_fwhm'
p68
g2
(g6
S'q\xb8y\x87rd\xf2?'
p69
tp70
Rp71
sS'mean_skybrite_hi'
p72
g2
(g6
S'j&%\x0cwT\xf3?'
p73
tp74
Rp75
sS'mean_skybrite_low'
p76
g2
(g6
S'\x19\xe1\xe1\xac\xe3\xfb\xef?'
p77
tp78
Rp79
sS'std_maglim_low'
p80
g2
(g6
S'2/\x811\xb5\x98\xbe?'
p81
tp82
Rp83
sS'ratio_airmass'
p84
g2
(g6
S'M\x8ag\xb6n\xf9\xef?'
p85
tp86
Rp87
sS'std_airmass_low'
p88
g2
(g6
S'\xca\xd5q\x9f5\xf6\xbd?'
p89
tp90
Rp91
sS'mean_airmass_hi'
p92
g2
(g6
S'\xcf\x9czX\xd6\xe1\xf0?'
p93
tp94
Rp95
sS'mean_fwhm_hi'
p96
g2
(g6
S'vg\xb6~\x94\x0c\xeb?'
p97
tp98
Rp99
sS'mean_maglim_hi'
p100
g2
(g6
S'\xf0\x84\xef\x0f9\xdd\xf0?'
p101
tp102
Rp103
s.