(dp0
S'maglim_hi'
p1
cnumpy.core.multiarray
_reconstruct
p2
(castropy.units.quantity
Quantity
p3
(I0
tp4
S'b'
p5
tp6
Rp7
((I1
(tcnumpy
dtype
p8
(S'f8'
p9
I0
I1
tp10
Rp11
(I3
S'<'
p12
NNNI-1
I-1
I0
tp13
bI00
S'\xc3\xdd\xe4l\xac>\x02;'
p14
tp15
(dp16
S'_unit'
p17
ccopy_reg
_reconstructor
p18
(castropy.units.core
CompositeUnit
p19
c__builtin__
object
p20
Ntp21
Rp22
(dp23
S'_decomposed_cache'
p24
NsS'_powers'
p25
(lp26
I1
aI1
aI-1
asS'_scale'
p27
F1.0
sS'_hash'
p28
NsS'_bases'
p29
(lp30
g18
(castropy.units.core
PrefixUnit
p31
g20
Ntp32
Rp33
(dp34
S'_format'
p35
(dp36
sS'_short_names'
p37
(lp38
VMpc
p39
asS'_names'
p40
(lp41
g39
aVmegaparsec
p42
asS'_represents'
p43
g18
(g19
g20
Ntp44
Rp45
(dp46
g24
g18
(g19
g20
Ntp47
Rp48
(dp49
g24
Nsg25
(lp50
I1
asg27
F3.0856775814671917e+22
sg28
Nsg29
(lp51
castropy.units.core
_recreate_irreducible_unit
p52
(castropy.units.core
IrreducibleUnit
p53
(lp54
Vm
p55
aVmeter
p56
aI01
tp57
Rp58
(dp59
g35
(dp60
sg37
(lp61
g55
asg40
(lp62
g55
ag56
asS'__doc__'
p63
Vmeter: base unit of length in SI
p64
sS'_long_names'
p65
(lp66
g56
asbasbsg25
(lp67
I1
asg27
F1000000.0
sg28
I5922263298416514872
sg29
(lp68
g18
(castropy.units.core
Unit
p69
g20
Ntp70
Rp71
(dp72
g35
(dp73
sg37
(lp74
Vpc
p75
asg40
(lp76
g75
aVparsec
p77
asg43
g18
(g19
g20
Ntp78
Rp79
(dp80
g24
g79
sg25
(lp81
I1
asg27
F3.0856775814671916e+16
sg28
I-1459738009292166718
sg29
(lp82
g58
asbsg63
Vparsec: approximately 3.26 light-years.
p83
sg65
(lp84
g77
asbasbsg63
Vmegaparsec (Mpc)
p85
sg65
(lp86
g42
asbag58
ag52
(g53
(lp87
Vkg
p88
aVkilogram
p89
aI01
tp90
Rp91
(dp92
g35
(dp93
sg37
(lp94
g88
asg40
(lp95
g88
ag89
asg63
Vkilogram: base unit of mass in SI.
p96
sg65
(lp97
g89
asbasbstp98
bsS'skybrite_low'
p99
g2
(g3
(I0
tp100
g5
tp101
Rp102
((I1
(tg11
I00
S'\xe2\x0c\x19\xab9\xd6\x01;'
p103
tp104
(dp105
g17
g18
(g19
g20
Ntp106
Rp107
(dp108
g24
Nsg25
(lp109
I1
aI1
aI-1
asg27
F1.0
sg28
Nsg29
(lp110
g33
ag58
ag91
asbstp111
bsS'fwhm_low'
p112
g2
(g3
(I0
tp113
g5
tp114
Rp115
((I1
(tg11
I00
S'\x87\x1c\x08\xcd\xc3\xdf\x01;'
p116
tp117
(dp118
g17
g18
(g19
g20
Ntp119
Rp120
(dp121
g24
Nsg25
(lp122
I1
aI1
aI-1
asg27
F1.0
sg28
Nsg29
(lp123
g33
ag58
ag91
asbstp124
bsS'maglim_low'
p125
g2
(g3
(I0
tp126
g5
tp127
Rp128
((I1
(tg11
I00
S'f@\xda\xc8Ou\x00;'
p129
tp130
(dp131
g17
g18
(g19
g20
Ntp132
Rp133
(dp134
g24
Nsg25
(lp135
I1
aI1
aI-1
asg27
F1.0
sg28
Nsg29
(lp136
g33
ag58
ag91
asbstp137
bsS'fwhm_hi'
p138
g2
(g3
(I0
tp139
g5
tp140
Rp141
((I1
(tg11
I00
S'\x1a4\xc0\x85\xd9.\x01;'
p142
tp143
(dp144
g17
g18
(g19
g20
Ntp145
Rp146
(dp147
g24
Nsg25
(lp148
I1
aI1
aI-1
asg27
F1.0
sg28
Nsg29
(lp149
g33
ag58
ag91
asbstp150
bsS'airmass_low'
p151
g2
(g3
(I0
tp152
g5
tp153
Rp154
((I1
(tg11
I00
S'i2\xd0\rym\x01;'
p155
tp156
(dp157
g17
g18
(g19
g20
Ntp158
Rp159
(dp160
g24
Nsg25
(lp161
I1
aI1
aI-1
asg27
F1.0
sg28
Nsg29
(lp162
g33
ag58
ag91
asbstp163
bsS'airmass_hi'
p164
g2
(g3
(I0
tp165
g5
tp166
Rp167
((I1
(tg11
I00
S'\xa8\xf9\xa1\x19\xf6\x9b\x01;'
p168
tp169
(dp170
g17
g18
(g19
g20
Ntp171
Rp172
(dp173
g24
Nsg25
(lp174
I1
aI1
aI-1
asg27
F1.0
sg28
Nsg29
(lp175
g33
ag58
ag91
asbstp176
bsS'skybrite_hi'
p177
g2
(g3
(I0
tp178
g5
tp179
Rp180
((I1
(tg11
I00
S"\x9f'|\x0e\x02#\x01;"
p181
tp182
(dp183
g17
g18
(g19
g20
Ntp184
Rp185
(dp186
g24
Nsg25
(lp187
I1
aI1
aI-1
asg27
F1.0
sg28
Nsg29
(lp188
g33
ag58
ag91
asbstp189
bs.